; Function Attrs: mustprogress nofree nounwind uwtable
define void @_ZN6icu_7717double_conversion6Bignum13SubtractTimesERKS1_i(ptr noundef nonnull align 4 captures(none) dereferenceable(516) %0, ptr noundef nonnull readonly align 4 captures(none) dereferenceable(516) %1, i32 noundef %2) local_unnamed_addr #5 align 2 {
  %4 = icmp slt i32 %2, 3
  br i1 %4, label %.preheader, label %7

.preheader:                                       ; preds = %3
  %5 = icmp sgt i32 %2, 0
  br i1 %5, label %.lr.ph54, label %_ZN6icu_7717double_conversion6Bignum5ClampEv.exit

.lr.ph54:                                         ; preds = %.preheader, %.lr.ph54
  %.053 = phi i32 [ %6, %.lr.ph54 ], [ 0, %.preheader ]
  tail call void @_ZN6icu_7717double_conversion6Bignum14SubtractBignumERKS1_(ptr noundef nonnull align 4 dereferenceable(516) %0, ptr noundef nonnull align 4 dereferenceable(516) %1)
  %6 = add nuw nsw i32 %.053, 1
  %exitcond61.not = icmp eq i32 %6, %2
  br i1 %exitcond61.not, label %_ZN6icu_7717double_conversion6Bignum5ClampEv.exit, label %.lr.ph54, !llvm.loop !43

7:                                                ; preds = %3
  %8 = getelementptr inbounds nuw i8, ptr %1, i64 2
  %9 = load i16, ptr %8, align 2, !tbaa !8
  %10 = sext i16 %9 to i32
  %11 = getelementptr inbounds nuw i8, ptr %0, i64 2
  %12 = load i16, ptr %11, align 2, !tbaa !8
  %13 = sext i16 %12 to i32
  %14 = sub nsw i32 %10, %13
  %15 = load i16, ptr %1, align 4, !tbaa !3
  %16 = sext i16 %15 to i32
  %17 = icmp sgt i16 %15, 0
  br i1 %17, label %.lr.ph, label %._crit_edge

.lr.ph:                                           ; preds = %7
  %18 = zext nneg i32 %2 to i64
  %19 = getelementptr inbounds nuw i8, ptr %1, i64 4
  %20 = getelementptr inbounds nuw i8, ptr %0, i64 4
  %21 = sext i32 %14 to i64
  %wide.trip.count = zext nneg i32 %16 to i64
  br label %28

._crit_edge:                                      ; preds = %28, %7
  %.035.lcssa = phi i32 [ 0, %7 ], [ %45, %28 ]
  %22 = add nsw i32 %14, %16
  %23 = load i16, ptr %0, align 4, !tbaa !3
  %24 = sext i16 %23 to i32
  %.not47 = icmp slt i32 %22, %24
  br i1 %.not47, label %.lr.ph51, label %.critedge

.lr.ph51:                                         ; preds = %._crit_edge
  %25 = getelementptr inbounds nuw i8, ptr %0, i64 4
  %26 = sext i32 %22 to i64
  %27 = sext i16 %23 to i64
  br label %46

28:                                               ; preds = %.lr.ph, %28
  %indvars.iv = phi i64 [ 0, %.lr.ph ], [ %indvars.iv.next, %28 ]
  %.03545 = phi i32 [ 0, %.lr.ph ], [ %45, %28 ]
  %29 = getelementptr inbounds nuw [128 x i32], ptr %19, i64 0, i64 %indvars.iv
  %30 = load i32, ptr %29, align 4, !tbaa !9
  %31 = zext i32 %30 to i64
  %32 = mul nuw nsw i64 %31, %18
  %33 = zext i32 %.03545 to i64
  %34 = add nuw nsw i64 %32, %33
  %35 = add nsw i64 %indvars.iv, %21
  %36 = getelementptr inbounds [128 x i32], ptr %20, i64 0, i64 %35
  %37 = load i32, ptr %36, align 4, !tbaa !9
  %38 = trunc i64 %34 to i32
  %39 = and i32 %38, 268435455
  %40 = sub i32 %37, %39
  %41 = and i32 %40, 268435455
  store i32 %41, ptr %36, align 4, !tbaa !9
  %42 = lshr i32 %40, 31
  %43 = lshr i64 %34, 28
  %44 = trunc i64 %43 to i32
  %45 = add i32 %42, %44
  %indvars.iv.next = add nuw nsw i64 %indvars.iv, 1
  %exitcond.not = icmp eq i64 %indvars.iv.next, %wide.trip.count
  br i1 %exitcond.not, label %._crit_edge, label %28, !llvm.loop !44

46:                                               ; preds = %.lr.ph51, %48
  %indvars.iv58 = phi i64 [ %26, %.lr.ph51 ], [ %indvars.iv.next59, %48 ]
  %.148 = phi i32 [ %.035.lcssa, %.lr.ph51 ], [ %53, %48 ]
  %47 = icmp eq i32 %.148, 0
  br i1 %47, label %_ZN6icu_7717double_conversion6Bignum5ClampEv.exit, label %48

48:                                               ; preds = %46
  %49 = getelementptr inbounds [128 x i32], ptr %25, i64 0, i64 %indvars.iv58
  %50 = load i32, ptr %49, align 4, !tbaa !9
  %51 = sub i32 %50, %.148
  %52 = and i32 %51, 268435455
  store i32 %52, ptr %49, align 4, !tbaa !9
  %53 = lshr i32 %51, 31
  %indvars.iv.next59 = add nsw i64 %indvars.iv58, 1
  %.not = icmp slt i64 %indvars.iv.next59, %27
  br i1 %.not, label %46, label %.critedge, !llvm.loop !45

.critedge:                                        ; preds = %48, %._crit_edge
  %54 = icmp sgt i16 %23, 0
  br i1 %54, label %.lr.ph.i, label %.critedge.i

.lr.ph.i:                                         ; preds = %.critedge
  %55 = getelementptr inbounds nuw i8, ptr %0, i64 4
  br label %56

56:                                               ; preds = %64, %.lr.ph.i
  %57 = phi i16 [ %23, %.lr.ph.i ], [ %65, %64 ]
  %58 = zext nneg i16 %57 to i64
  %59 = add nuw nsw i64 %58, 4294967295
  %60 = and i64 %59, 4294967295
  %61 = getelementptr inbounds nuw [128 x i32], ptr %55, i64 0, i64 %60
  %62 = load i32, ptr %61, align 4, !tbaa !9
  %63 = icmp eq i32 %62, 0
  br i1 %63, label %64, label %_ZN6icu_7717double_conversion6Bignum5ClampEv.exit

64:                                               ; preds = %56
  %65 = add nsw i16 %57, -1
  store i16 %65, ptr %0, align 4, !tbaa !3
  %66 = icmp sgt i16 %57, 1
  br i1 %66, label %56, label %.critedge.thread3.i, !llvm.loop !17

.critedge.i:                                      ; preds = %.critedge
  %67 = icmp eq i16 %23, 0
  br i1 %67, label %.critedge.thread3.i, label %_ZN6icu_7717double_conversion6Bignum5ClampEv.exit

.critedge.thread3.i:                              ; preds = %64, %.critedge.i
  store i16 0, ptr %11, align 2, !tbaa !8
  br label %_ZN6icu_7717double_conversion6Bignum5ClampEv.exit

_ZN6icu_7717double_conversion6Bignum5ClampEv.exit: ; preds = %46, %56, %.lr.ph54, %.preheader, %.critedge.thread3.i, %.critedge.i
  ret void
}